; Function Attrs: mustprogress nounwind uwtable
define internal void @_ZZN6hermes2vm6GCBase20sizeDiagnosticCensusEmEN26HeapSizeDiagnosticAcceptor14acceptNullableERNS0_17PinnedHermesValueE(ptr noundef nonnull align 8 dereferenceable(168) %this, ptr nocapture noundef nonnull readonly align 8 dereferenceable(8) %hv) unnamed_addr #0 align 2 {
entry:
  %ref.tmp = alloca %"class.std::__cxx11::basic_string", align 8
  %ref.tmp2 = alloca %"class.std::allocator.2", align 1
  %breakdown = getelementptr inbounds i8, ptr %this, i64 112
  call void @_ZNSaIcEC1Ev(ptr noundef nonnull align 1 dereferenceable(1) %ref.tmp2) #27
  %call.i = call noundef ptr @_ZNSt7__cxx1112basic_stringIcSt11char_traitsIcESaIcEE13_M_local_dataEv(ptr noundef nonnull align 8 dereferenceable(32) %ref.tmp) #27
  call void @_ZNSt7__cxx1112basic_stringIcSt11char_traitsIcESaIcEE12_Alloc_hiderC1EPcRKS3_(ptr noundef nonnull align 8 dereferenceable(8) %ref.tmp, ptr noundef %call.i, ptr noundef nonnull align 1 dereferenceable(1) %ref.tmp2) #27
  call void @_ZNSt7__cxx1112basic_stringIcSt11char_traitsIcESaIcEE12_M_constructIPKcEEvT_S8_St20forward_iterator_tag(ptr noundef nonnull align 8 dereferenceable(32) %ref.tmp, ptr noundef nonnull @.str.64, ptr noundef nonnull getelementptr inbounds ([12 x i8], ptr @.str.64, i64 0, i64 11))
  %call = call fastcc noundef nonnull align 8 dereferenceable(64) ptr @_ZNSt3mapINSt7__cxx1112basic_stringIcSt11char_traitsIcESaIcEEEZN6hermes2vm6GCBase20sizeDiagnosticCensusEmE14DiagnosticStatSt4lessIS5_ESaISt4pairIKS5_S9_EEEixEOS5_(ptr noundef nonnull align 8 dereferenceable(48) %breakdown, ptr noundef nonnull align 8 dereferenceable(32) %ref.tmp)
  call fastcc void @_ZZN6hermes2vm6GCBase20sizeDiagnosticCensusEmEN26HeapSizeDiagnosticAcceptor8acceptHVERKNS0_11HermesValueERZNS1_20sizeDiagnosticCensusEmE14DiagnosticStatm(ptr noundef nonnull align 8 dereferenceable(168) %this, ptr noundef nonnull align 8 dereferenceable(8) %hv, ptr noundef nonnull align 8 dereferenceable(64) %call, i64 noundef 8)
  call void @_ZNSt7__cxx1112basic_stringIcSt11char_traitsIcESaIcEED1Ev(ptr noundef nonnull align 8 dereferenceable(32) %ref.tmp) #27
  call void @_ZNSaIcED1Ev(ptr noundef nonnull align 1 dereferenceable(1) %ref.tmp2) #27
  ret void
}